target datalayout = "e-m:e-p270:32:32-p271:32:32-p272:64:64-i64:64-i128:128-f80:128-n8:16:32:64-S128"
target triple = "x86_64-unknown-linux-gnu"

%"class.node::MemoryRetainer" = type { ptr }
%"class.node::HistogramImpl" = type { %"class.std::shared_ptr" }
%"class.std::shared_ptr" = type { %"class.std::__shared_ptr" }
%"class.std::__shared_ptr" = type { ptr, %"class.std::__shared_count" }
%"class.std::__shared_count" = type { ptr }
%"class.v8::IndirectHandleBase" = type { ptr }
%struct.uv_timer_s = type { ptr, ptr, i32, ptr, %struct.uv__queue, %union.anon, ptr, i32, ptr, [3 x ptr], i64, i64, i64 }
%struct.uv__queue = type { ptr, ptr }
%union.anon = type { [4 x ptr] }
%"class.node::ListNode" = type { ptr, ptr }
%"class.std::_Function_base" = type { %"union.std::_Any_data", ptr }
%"union.std::_Any_data" = type { %"union.std::_Nocopy_types" }
%"union.std::_Nocopy_types" = type { { i64, i64 } }
%"class.node::IntervalHistogram" = type { %"class.node::HandleWrap", %"class.node::HistogramImpl", i8, i32, %"class.std::function.384", %struct.uv_timer_s }
%"class.node::HandleWrap" = type { %"class.node::AsyncWrap", i32, %"class.node::ListNode", ptr }
%"class.node::AsyncWrap" = type { %"class.node::BaseObject", i32, i8, double, double }
%"class.node::BaseObject" = type { %"class.node::MemoryRetainer", %"class.v8::Global", ptr, ptr }
%"class.v8::Global" = type { %"class.v8::PersistentBase" }
%"class.v8::PersistentBase" = type { %"class.v8::IndirectHandleBase" }
%"class.std::function.384" = type { %"class.std::_Function_base", ptr }
%"class.node::ContainerOfHelper" = type { ptr }

; Function Attrs: mustprogress nounwind uwtable
define linkonce_odr dso_local noundef i64 @_ZN4node8OffsetOfI10uv_timer_sNS_17IntervalHistogramEEEmMT0_T_(i64 %field) #4 comdat {
entry:
  %field.addr = alloca i64, align 8
  store i64 %field, ptr %field.addr, align 8
  %0 = load i64, ptr %field.addr, align 8
  %memptr.offset = getelementptr inbounds i8, ptr null, i64 %0
  %1 = ptrtoint ptr %memptr.offset to i64
  ret i64 %1
}

; Function Attrs: mustprogress nounwind uwtable
define linkonce_odr dso_local noundef zeroext i1 @_ZNKSt14_Function_base8_M_emptyEv(ptr noundef nonnull align 8 dereferenceable(24) %this) #4 comdat align 2 {
entry:
  %this.addr = alloca ptr, align 8
  store ptr %this, ptr %this.addr, align 8
  %this1 = load ptr, ptr %this.addr, align 8
  %_M_manager = getelementptr inbounds %"class.std::_Function_base", ptr %this1, i32 0, i32 1
  %0 = load ptr, ptr %_M_manager, align 8
  %tobool = icmp ne ptr %0, null
  %lnot = xor i1 %tobool, true
  ret i1 %lnot
}

; Function Attrs: mustprogress nounwind uwtable
define linkonce_odr dso_local void @_ZN4node17ContainerOfHelperI10uv_timer_sNS_17IntervalHistogramEEC2EMS2_S1_PS1_(ptr noundef nonnull align 8 dereferenceable(8) %this, i64 %field, ptr noundef %pointer) unnamed_addr #4 comdat align 2 {
entry:
  %this.addr = alloca ptr, align 8
  %field.addr = alloca i64, align 8
  %pointer.addr = alloca ptr, align 8
  store ptr %this, ptr %this.addr, align 8
  store i64 %field, ptr %field.addr, align 8
  store ptr %pointer, ptr %pointer.addr, align 8
  %this1 = load ptr, ptr %this.addr, align 8
  %pointer_ = getelementptr inbounds %"class.node::ContainerOfHelper", ptr %this1, i32 0, i32 0
  %0 = load ptr, ptr %pointer.addr, align 8
  %1 = ptrtoint ptr %0 to i64
  %2 = load i64, ptr %field.addr, align 8
  %call = call noundef i64 @_ZN4node8OffsetOfI10uv_timer_sNS_17IntervalHistogramEEEmMT0_T_(i64 %2)
  %sub = sub i64 %1, %call
  %3 = inttoptr i64 %sub to ptr
  store ptr %3, ptr %pointer_, align 8
  ret void
}

; Function Attrs: mustprogress nounwind uwtable
define linkonce_odr dso_local void @_ZNKSt8functionIFvRN4node9HistogramEEEclES2_(ptr noundef nonnull align 8 dereferenceable(32) %this, ptr noundef nonnull align 8 dereferenceable(80) %__args) #4 comdat align 2 {
entry:
  %this.addr = alloca ptr, align 8
  %__args.addr = alloca ptr, align 8
  store ptr %this, ptr %this.addr, align 8
  store ptr %__args, ptr %__args.addr, align 8
  %this1 = load ptr, ptr %this.addr, align 8
  %call = call noundef zeroext i1 @_ZNKSt14_Function_base8_M_emptyEv(ptr noundef nonnull align 8 dereferenceable(24) %this1)
  br i1 %call, label %if.then, label %if.end

if.then:                                          ; preds = %entry
  call void @_ZSt25__throw_bad_function_callv() #16
  unreachable

if.end:                                           ; preds = %entry
  %_M_invoker = getelementptr inbounds %"class.std::function.384", ptr %this1, i32 0, i32 1
  %0 = load ptr, ptr %_M_invoker, align 8
  %_M_functor = getelementptr inbounds %"class.std::_Function_base", ptr %this1, i32 0, i32 0
  %1 = load ptr, ptr %__args.addr, align 8
  call void %0(ptr noundef nonnull align 8 dereferenceable(16) %_M_functor, ptr noundef nonnull align 8 dereferenceable(80) %1)
  ret void
}

; Function Attrs: mustprogress nounwind uwtable
define linkonce_odr dso_local noundef ptr @_ZNKSt12__shared_ptrIN4node9HistogramELN9__gnu_cxx12_Lock_policyE2EE3getEv(ptr noundef nonnull align 8 dereferenceable(16) %this) #4 comdat align 2 {
entry:
  %this.addr = alloca ptr, align 8
  store ptr %this, ptr %this.addr, align 8
  %this1 = load ptr, ptr %this.addr, align 8
  %_M_ptr = getelementptr inbounds %"class.std::__shared_ptr", ptr %this1, i32 0, i32 0
  %0 = load ptr, ptr %_M_ptr, align 8
  ret ptr %0
}

; Function Attrs: mustprogress nounwind uwtable
define linkonce_odr dso_local noundef nonnull align 8 dereferenceable(16) ptr @_ZNK4node13HistogramImpl9histogramEv(ptr noundef nonnull align 8 dereferenceable(16) %this) #4 comdat align 2 {
entry:
  %this.addr = alloca ptr, align 8
  store ptr %this, ptr %this.addr, align 8
  %this1 = load ptr, ptr %this.addr, align 8
  %histogram_ = getelementptr inbounds %"class.node::HistogramImpl", ptr %this1, i32 0, i32 0
  ret ptr %histogram_
}

; Function Attrs: mustprogress nounwind uwtable
define linkonce_odr dso_local noundef ptr @_ZNK4node17ContainerOfHelperI10uv_timer_sNS_17IntervalHistogramEEcvPT_IS2_EEv(ptr noundef nonnull align 8 dereferenceable(8) %this) #4 comdat align 2 {
entry:
  %this.addr = alloca ptr, align 8
  store ptr %this, ptr %this.addr, align 8
  %this1 = load ptr, ptr %this.addr, align 8
  %pointer_ = getelementptr inbounds %"class.node::ContainerOfHelper", ptr %this1, i32 0, i32 0
  %0 = load ptr, ptr %pointer_, align 8
  ret ptr %0
}

; Function Attrs: mustprogress nounwind uwtable
define linkonce_odr dso_local ptr @_ZN4node11ContainerOfI10uv_timer_sNS_17IntervalHistogramEEENS_17ContainerOfHelperIT_T0_EEMS5_S4_PS4_(i64 %field, ptr noundef %pointer) #4 comdat {
entry:
  %retval = alloca %"class.node::ContainerOfHelper", align 8
  %field.addr = alloca i64, align 8
  %pointer.addr = alloca ptr, align 8
  store i64 %field, ptr %field.addr, align 8
  store ptr %pointer, ptr %pointer.addr, align 8
  %0 = load i64, ptr %field.addr, align 8
  %1 = load ptr, ptr %pointer.addr, align 8
  call void @_ZN4node17ContainerOfHelperI10uv_timer_sNS_17IntervalHistogramEEC2EMS2_S1_PS1_(ptr noundef nonnull align 8 dereferenceable(8) %retval, i64 %0, ptr noundef %1)
  %coerce.dive = getelementptr inbounds %"class.node::ContainerOfHelper", ptr %retval, i32 0, i32 0
  %2 = load ptr, ptr %coerce.dive, align 8
  ret ptr %2
}

; Function Attrs: mustprogress nounwind uwtable
define dso_local void @_ZN4node17IntervalHistogram7TimerCBEP10uv_timer_s(ptr noundef %handle) #4 align 2 {
entry:
  %handle.addr = alloca ptr, align 8
  %histogram = alloca ptr, align 8
  %ref.tmp = alloca %"class.node::ContainerOfHelper", align 8
  %h = alloca ptr, align 8
  store ptr %handle, ptr %handle.addr, align 8
  %0 = load ptr, ptr %handle.addr, align 8
  %call = call ptr @_ZN4node11ContainerOfI10uv_timer_sNS_17IntervalHistogramEEENS_17ContainerOfHelperIT_T0_EEMS5_S4_PS4_(i64 144, ptr noundef %0)
  %coerce.dive = getelementptr inbounds %"class.node::ContainerOfHelper", ptr %ref.tmp, i32 0, i32 0
  store ptr %call, ptr %coerce.dive, align 8
  %call1 = call noundef ptr @_ZNK4node17ContainerOfHelperI10uv_timer_sNS_17IntervalHistogramEEcvPT_IS2_EEv(ptr noundef nonnull align 8 dereferenceable(8) %ref.tmp)
  store ptr %call1, ptr %histogram, align 8
  %1 = load ptr, ptr %histogram, align 8
  %add.ptr = getelementptr inbounds i8, ptr %1, i64 88
  %call2 = call noundef nonnull align 8 dereferenceable(16) ptr @_ZNK4node13HistogramImpl9histogramEv(ptr noundef nonnull align 8 dereferenceable(16) %add.ptr)
  %call3 = call noundef ptr @_ZNKSt12__shared_ptrIN4node9HistogramELN9__gnu_cxx12_Lock_policyE2EE3getEv(ptr noundef nonnull align 8 dereferenceable(16) %call2) #3
  store ptr %call3, ptr %h, align 8
  %2 = load ptr, ptr %histogram, align 8
  %on_interval_ = getelementptr inbounds %"class.node::IntervalHistogram", ptr %2, i32 0, i32 4
  %3 = load ptr, ptr %h, align 8
  call void @_ZNKSt8functionIFvRN4node9HistogramEEEclES2_(ptr noundef nonnull align 8 dereferenceable(32) %on_interval_, ptr noundef nonnull align 8 dereferenceable(80) %3)
  ret void
}